; Function Attrs: mustprogress nounwind uwtable
define hidden void @_ZN6hermes3hbc20BytecodeDisassembler30disassembleFunctionSourceTableERN4llvh11raw_ostreamE(ptr nocapture noundef nonnull readonly align 8 dereferenceable(20) %this, ptr noundef nonnull align 8 dereferenceable(36) %OS) local_unnamed_addr #1 align 2 {
entry:
  %0 = load ptr, ptr %this, align 8
  %functionSourceTable_.i = getelementptr inbounds i8, ptr %0, i64 224
  %retval.sroa.0.0.copyload.i = load ptr, ptr %functionSourceTable_.i, align 8
  %retval.sroa.2.0.functionSourceTable_.sroa_idx.i = getelementptr inbounds i8, ptr %0, i64 232
  %retval.sroa.2.0.copyload.i = load i64, ptr %retval.sroa.2.0.functionSourceTable_.sroa_idx.i, align 8
  %cmp.i = icmp eq i64 %retval.sroa.2.0.copyload.i, 0
  br i1 %cmp.i, label %if.end, label %if.then

if.then:                                          ; preds = %entry
  %OutBufEnd.i5.i = getelementptr inbounds i8, ptr %OS, i64 16
  %1 = load ptr, ptr %OutBufEnd.i5.i, align 8
  %OutBufCur.i6.i = getelementptr inbounds i8, ptr %OS, i64 24
  %2 = load ptr, ptr %OutBufCur.i6.i, align 8
  %sub.ptr.lhs.cast.i7.i = ptrtoint ptr %1 to i64
  %sub.ptr.rhs.cast.i8.i = ptrtoint ptr %2 to i64
  %sub.ptr.sub.i9.i = sub i64 %sub.ptr.lhs.cast.i7.i, %sub.ptr.rhs.cast.i8.i
  %cmp.i.i = icmp ult i64 %sub.ptr.sub.i9.i, 23
  br i1 %cmp.i.i, label %if.then.i.i, label %if.then4.i.i

if.then.i.i:                                      ; preds = %if.then
  %call3.i.i = tail call noundef nonnull align 8 dereferenceable(36) ptr @_ZN4llvh11raw_ostream5writeEPKcm(ptr noundef nonnull align 8 dereferenceable(36) %OS, ptr noundef nonnull @.str.39, i64 noundef 23) #17
  br label %for.body.preheader

if.then4.i.i:                                     ; preds = %if.then
  tail call void @llvm.memcpy.p0.p0.i64(ptr noundef nonnull align 1 dereferenceable(23) %2, ptr noundef nonnull align 1 dereferenceable(23) @.str.39, i64 23, i1 false)
  %3 = load ptr, ptr %OutBufCur.i6.i, align 8
  %add.ptr.i.i = getelementptr inbounds i8, ptr %3, i64 23
  store ptr %add.ptr.i.i, ptr %OutBufCur.i6.i, align 8
  br label %for.body.preheader

for.body.preheader:                               ; preds = %if.then4.i.i, %if.then.i.i
  %add.ptr.i = getelementptr inbounds %"struct.std::pair.5", ptr %retval.sroa.0.0.copyload.i, i64 %retval.sroa.2.0.copyload.i
  br label %for.body

for.body:                                         ; preds = %for.body.preheader, %_ZN4llvh11raw_ostreamlsEc.exit
  %__begin3.053 = phi ptr [ %incdec.ptr, %_ZN4llvh11raw_ostreamlsEc.exit ], [ %retval.sroa.0.0.copyload.i, %for.body.preheader ]
  %4 = load ptr, ptr %OutBufEnd.i5.i, align 8
  %5 = load ptr, ptr %OutBufCur.i6.i, align 8
  %sub.ptr.lhs.cast.i7.i11 = ptrtoint ptr %4 to i64
  %sub.ptr.rhs.cast.i8.i12 = ptrtoint ptr %5 to i64
  %sub.ptr.sub.i9.i13 = sub i64 %sub.ptr.lhs.cast.i7.i11, %sub.ptr.rhs.cast.i8.i12
  %cmp.i.i14 = icmp ult i64 %sub.ptr.sub.i9.i13, 14
  br i1 %cmp.i.i14, label %if.then.i.i20, label %if.then4.i.i17

if.then.i.i20:                                    ; preds = %for.body
  %call3.i.i21 = tail call noundef nonnull align 8 dereferenceable(36) ptr @_ZN4llvh11raw_ostream5writeEPKcm(ptr noundef nonnull align 8 dereferenceable(36) %OS, ptr noundef nonnull @.str.40, i64 noundef 14) #17
  br label %_ZN4llvh11raw_ostreamlsEPKc.exit22

if.then4.i.i17:                                   ; preds = %for.body
  tail call void @llvm.memcpy.p0.p0.i64(ptr noundef nonnull align 1 dereferenceable(14) %5, ptr noundef nonnull align 1 dereferenceable(14) @.str.40, i64 14, i1 false)
  %6 = load ptr, ptr %OutBufCur.i6.i, align 8
  %add.ptr.i.i18 = getelementptr inbounds i8, ptr %6, i64 14
  store ptr %add.ptr.i.i18, ptr %OutBufCur.i6.i, align 8
  br label %_ZN4llvh11raw_ostreamlsEPKc.exit22

_ZN4llvh11raw_ostreamlsEPKc.exit22:               ; preds = %if.then.i.i20, %if.then4.i.i17
  %phi.call.i19 = phi ptr [ %call3.i.i21, %if.then.i.i20 ], [ %OS, %if.then4.i.i17 ]
  %7 = load i32, ptr %__begin3.053, align 4
  %conv.i = zext i32 %7 to i64
  %call.i = tail call noundef nonnull align 8 dereferenceable(36) ptr @_ZN4llvh11raw_ostreamlsEm(ptr noundef nonnull align 8 dereferenceable(36) %phi.call.i19, i64 noundef %conv.i) #17
  %OutBufEnd.i5.i24 = getelementptr inbounds i8, ptr %call.i, i64 16
  %8 = load ptr, ptr %OutBufEnd.i5.i24, align 8
  %OutBufCur.i6.i25 = getelementptr inbounds i8, ptr %call.i, i64 24
  %9 = load ptr, ptr %OutBufCur.i6.i25, align 8
  %sub.ptr.lhs.cast.i7.i26 = ptrtoint ptr %8 to i64
  %sub.ptr.rhs.cast.i8.i27 = ptrtoint ptr %9 to i64
  %sub.ptr.sub.i9.i28 = sub i64 %sub.ptr.lhs.cast.i7.i26, %sub.ptr.rhs.cast.i8.i27
  %cmp.i.i29 = icmp ult i64 %sub.ptr.sub.i9.i28, 5
  br i1 %cmp.i.i29, label %if.then.i.i35, label %if.then4.i.i32

if.then.i.i35:                                    ; preds = %_ZN4llvh11raw_ostreamlsEPKc.exit22
  %call3.i.i36 = tail call noundef nonnull align 8 dereferenceable(36) ptr @_ZN4llvh11raw_ostream5writeEPKcm(ptr noundef nonnull align 8 dereferenceable(36) %call.i, ptr noundef nonnull @.str.41, i64 noundef 5) #17
  br label %_ZN4llvh11raw_ostreamlsEPKc.exit37

if.then4.i.i32:                                   ; preds = %_ZN4llvh11raw_ostreamlsEPKc.exit22
  tail call void @llvm.memcpy.p0.p0.i64(ptr noundef nonnull align 1 dereferenceable(5) %9, ptr noundef nonnull align 1 dereferenceable(5) @.str.41, i64 5, i1 false)
  %10 = load ptr, ptr %OutBufCur.i6.i25, align 8
  %add.ptr.i.i33 = getelementptr inbounds i8, ptr %10, i64 5
  store ptr %add.ptr.i.i33, ptr %OutBufCur.i6.i25, align 8
  br label %_ZN4llvh11raw_ostreamlsEPKc.exit37

_ZN4llvh11raw_ostreamlsEPKc.exit37:               ; preds = %if.then.i.i35, %if.then4.i.i32
  %phi.call.i34 = phi ptr [ %call3.i.i36, %if.then.i.i35 ], [ %call.i, %if.then4.i.i32 ]
  %second = getelementptr inbounds i8, ptr %__begin3.053, i64 4
  %11 = load i32, ptr %second, align 4
  %conv.i38 = zext i32 %11 to i64
  %call.i39 = tail call noundef nonnull align 8 dereferenceable(36) ptr @_ZN4llvh11raw_ostreamlsEm(ptr noundef nonnull align 8 dereferenceable(36) %phi.call.i34, i64 noundef %conv.i38) #17
  %OutBufCur.i = getelementptr inbounds i8, ptr %call.i39, i64 24
  %12 = load ptr, ptr %OutBufCur.i, align 8
  %OutBufEnd.i = getelementptr inbounds i8, ptr %call.i39, i64 16
  %13 = load ptr, ptr %OutBufEnd.i, align 8
  %cmp.not.i = icmp ult ptr %12, %13
  br i1 %cmp.not.i, label %if.end.i, label %if.then.i

if.then.i:                                        ; preds = %_ZN4llvh11raw_ostreamlsEPKc.exit37
  %call.i40 = tail call noundef nonnull align 8 dereferenceable(36) ptr @_ZN4llvh11raw_ostream5writeEh(ptr noundef nonnull align 8 dereferenceable(36) %call.i39, i8 noundef zeroext 10) #17
  br label %_ZN4llvh11raw_ostreamlsEc.exit

if.end.i:                                         ; preds = %_ZN4llvh11raw_ostreamlsEPKc.exit37
  %incdec.ptr.i = getelementptr inbounds i8, ptr %12, i64 1
  store ptr %incdec.ptr.i, ptr %OutBufCur.i, align 8
  store i8 10, ptr %12, align 1
  br label %_ZN4llvh11raw_ostreamlsEc.exit

_ZN4llvh11raw_ostreamlsEc.exit:                   ; preds = %if.then.i, %if.end.i
  %incdec.ptr = getelementptr inbounds i8, ptr %__begin3.053, i64 8
  %cmp.not = icmp eq ptr %incdec.ptr, %add.ptr.i
  br i1 %cmp.not, label %for.end, label %for.body

for.end:                                          ; preds = %_ZN4llvh11raw_ostreamlsEc.exit
  %14 = load ptr, ptr %OutBufCur.i6.i, align 8
  %15 = load ptr, ptr %OutBufEnd.i5.i, align 8
  %cmp.not.i43 = icmp ult ptr %14, %15
  br i1 %cmp.not.i43, label %if.end.i47, label %if.then.i44

if.then.i44:                                      ; preds = %for.end
  %call.i45 = tail call noundef nonnull align 8 dereferenceable(36) ptr @_ZN4llvh11raw_ostream5writeEh(ptr noundef nonnull align 8 dereferenceable(36) %OS, i8 noundef zeroext 10) #17
  br label %if.end

if.end.i47:                                       ; preds = %for.end
  %incdec.ptr.i48 = getelementptr inbounds i8, ptr %14, i64 1
  store ptr %incdec.ptr.i48, ptr %OutBufCur.i6.i, align 8
  store i8 10, ptr %14, align 1
  br label %if.end

if.end:                                           ; preds = %if.end.i47, %if.then.i44, %entry
  ret void
}